; Function Attrs: nounwind uwtable
define internal noundef i32 @rgbtest_config_props(ptr noundef captures(none) initializes((40, 56), (96, 104), (264, 272)) %0) #1 {
  %2 = load ptr, ptr %0, align 8, !tbaa !38
  %3 = getelementptr inbounds nuw i8, ptr %2, i64 72
  %4 = load ptr, ptr %3, align 8, !tbaa !4
  %5 = getelementptr inbounds nuw i8, ptr %0, i64 36
  %6 = load i32, ptr %5, align 4, !tbaa !61
  %7 = tail call ptr @av_pix_fmt_desc_get(i32 noundef %6) #20
  %8 = getelementptr inbounds nuw i8, ptr %7, i64 40
  %9 = load i32, ptr %8, align 8, !tbaa !72
  %10 = getelementptr inbounds nuw i8, ptr %4, i64 320
  store i32 %9, ptr %10, align 8, !tbaa !108
  %11 = getelementptr inbounds nuw i8, ptr %4, i64 312
  %12 = load i32, ptr %5, align 4, !tbaa !61
  %13 = tail call i32 @ff_fill_rgba_map(ptr noundef nonnull %11, i32 noundef %12) #20
  %14 = load ptr, ptr %0, align 8, !tbaa !38
  %15 = getelementptr inbounds nuw i8, ptr %14, i64 72
  %16 = load ptr, ptr %15, align 8, !tbaa !4
  %17 = getelementptr inbounds nuw i8, ptr %16, i64 8
  %18 = load i32, ptr %17, align 8, !tbaa !36
  %19 = getelementptr inbounds nuw i8, ptr %0, i64 40
  store i32 %18, ptr %19, align 8, !tbaa !64
  %20 = getelementptr inbounds nuw i8, ptr %16, i64 12
  %21 = load i32, ptr %20, align 4, !tbaa !37
  %22 = getelementptr inbounds nuw i8, ptr %0, i64 44
  store i32 %21, ptr %22, align 4, !tbaa !65
  %23 = getelementptr inbounds nuw i8, ptr %0, i64 48
  %24 = getelementptr inbounds nuw i8, ptr %16, i64 64
  %25 = load i64, ptr %24, align 8
  store i64 %25, ptr %23, align 8
  %26 = getelementptr inbounds nuw i8, ptr %0, i64 264
  %27 = getelementptr inbounds nuw i8, ptr %16, i64 36
  %28 = load i64, ptr %27, align 4
  store i64 %28, ptr %26, align 8
  %29 = getelementptr inbounds nuw i8, ptr %0, i64 96
  %30 = getelementptr inbounds nuw i8, ptr %16, i64 28
  %31 = load i64, ptr %30, align 4
  store i64 %31, ptr %29, align 8
  ret i32 0
}